target datalayout = "e-m:e-p270:32:32-p271:32:32-p272:64:64-i64:64-i128:128-f80:128-n8:16:32:64-S128"
target triple = "x86_64-pc-linux-gnu"

%struct.anon.44 = type { i8 }
%struct.hb_hashmap_t = type { %struct.hb_object_header_t, i32, i32, i32, i32, i32, ptr }
%struct.hb_object_header_t = type { %struct.hb_reference_count_t, %struct.hb_atomic_int_t, %struct.hb_atomic_ptr_t }
%struct.hb_reference_count_t = type { %struct.hb_atomic_int_t }
%struct.hb_atomic_int_t = type { i32 }
%struct.hb_atomic_ptr_t = type { ptr }
%struct.hb_user_data_array_t = type { %struct.hb_mutex_t, %struct.hb_lockable_set_t }
%struct.hb_mutex_t = type { [40 x i8] }
%struct.hb_lockable_set_t = type { %struct.hb_vector_t.39 }
%struct.hb_vector_t.39 = type { i32, i32, ptr }
%"struct.hb_user_data_array_t::hb_user_data_item_t" = type { ptr, ptr, ptr }
%struct.hb_array_t.40 = type { ptr, i32, i32 }

@_ZL8hb_equal = internal constant %struct.anon.44 zeroinitializer, align 1

; Function Attrs: mustprogress nounwind uwtable
define linkonce_odr hidden noundef zeroext i1 @_ZNK20hb_user_data_array_t19hb_user_data_item_teqEPK18hb_user_data_key_t(ptr noundef nonnull align 8 dereferenceable(24) %0, ptr noundef %1) #2 comdat align 2 {
  %3 = alloca ptr, align 8
  %4 = alloca ptr, align 8
  store ptr %0, ptr %3, align 8
  store ptr %1, ptr %4, align 8
  %5 = load ptr, ptr %3, align 8
  %6 = getelementptr inbounds %"struct.hb_user_data_array_t::hb_user_data_item_t", ptr %5, i32 0, i32 0
  %7 = load ptr, ptr %6, align 8
  %8 = load ptr, ptr %4, align 8
  %9 = icmp eq ptr %7, %8
  ret i1 %9
}

; Function Attrs: mustprogress uwtable
define internal noundef zeroext i1 @"_ZNK3$_64implIRKP18hb_user_data_key_tRN20hb_user_data_array_t19hb_user_data_item_tEEEDTeqclsr3stdE7forwardIT0_Efp0_Eclsr3stdE7forwardIT_Efp_EEOS9_OS8_11hb_priorityILj0EE"(ptr noundef nonnull align 1 dereferenceable(1) %0, ptr noundef nonnull align 8 dereferenceable(8) %1, ptr noundef nonnull align 8 dereferenceable(24) %2) #0 align 2 {
  %4 = alloca ptr, align 8
  %5 = alloca ptr, align 8
  %6 = alloca ptr, align 8
  store ptr %0, ptr %4, align 8
  store ptr %1, ptr %5, align 8
  store ptr %2, ptr %6, align 8
  %7 = load ptr, ptr %6, align 8
  %8 = load ptr, ptr %5, align 8
  %9 = load ptr, ptr %8, align 8
  %10 = call noundef zeroext i1 @_ZNK20hb_user_data_array_t19hb_user_data_item_teqEPK18hb_user_data_key_t(ptr noundef nonnull align 8 dereferenceable(24) %7, ptr noundef %9)
  ret i1 %10
}

; Function Attrs: mustprogress uwtable
define internal noundef zeroext i1 @"_ZNK3$_6clIRKP18hb_user_data_key_tRN20hb_user_data_array_t19hb_user_data_item_tEEEDTcl4implclsr3stdE7forwardIT_Efp_Eclsr3stdE7forwardIT0_Efp0_Ecv11hb_priorityILj16EE_EEEOS8_OS9_"(ptr noundef nonnull align 1 dereferenceable(1) %0, ptr noundef nonnull align 8 dereferenceable(8) %1, ptr noundef nonnull align 8 dereferenceable(24) %2) #0 align 2 {
  %4 = alloca ptr, align 8
  %5 = alloca ptr, align 8
  %6 = alloca ptr, align 8
  store ptr %0, ptr %4, align 8
  store ptr %1, ptr %5, align 8
  store ptr %2, ptr %6, align 8
  %7 = load ptr, ptr %4, align 8
  %8 = load ptr, ptr %5, align 8
  %9 = load ptr, ptr %6, align 8
  %10 = call noundef zeroext i1 @"_ZNK3$_64implIRKP18hb_user_data_key_tRN20hb_user_data_array_t19hb_user_data_item_tEEEDTeqclsr3stdE7forwardIT0_Efp0_Eclsr3stdE7forwardIT_Efp_EEOS9_OS8_11hb_priorityILj0EE"(ptr noundef nonnull align 1 dereferenceable(1) %7, ptr noundef nonnull align 8 dereferenceable(8) %8, ptr noundef nonnull align 8 dereferenceable(24) %9)
  ret i1 %10
}

; Function Attrs: mustprogress nounwind uwtable
define linkonce_odr hidden void @_ZN10hb_array_tIN20hb_user_data_array_t19hb_user_data_item_tEEC2EPS1_j(ptr noundef nonnull align 8 dereferenceable(16) %0, ptr noundef %1, i32 noundef %2) unnamed_addr #2 comdat align 2 {
  %4 = alloca ptr, align 8
  %5 = alloca ptr, align 8
  %6 = alloca i32, align 4
  store ptr %0, ptr %4, align 8
  store ptr %1, ptr %5, align 8
  store i32 %2, ptr %6, align 4
  %7 = load ptr, ptr %4, align 8
  %8 = getelementptr inbounds %struct.hb_array_t.40, ptr %7, i32 0, i32 0
  %9 = load ptr, ptr %5, align 8
  store ptr %9, ptr %8, align 8
  %10 = getelementptr inbounds %struct.hb_array_t.40, ptr %7, i32 0, i32 1
  %11 = load i32, ptr %6, align 4
  store i32 %11, ptr %10, align 8
  %12 = getelementptr inbounds %struct.hb_array_t.40, ptr %7, i32 0, i32 2
  store i32 0, ptr %12, align 4
  ret void
}

; Function Attrs: mustprogress uwtable
define linkonce_odr hidden noundef zeroext i1 @_ZNK10hb_array_tIN20hb_user_data_array_t19hb_user_data_item_tEE5lfindIP18hb_user_data_key_tEEbRKT_Pj14hb_not_found_tj(ptr noundef nonnull align 8 dereferenceable(16) %0, ptr noundef nonnull align 8 dereferenceable(8) %1, ptr noundef %2, i32 noundef %3, i32 noundef %4) #0 comdat align 2 {
  %6 = alloca i1, align 1
  %7 = alloca ptr, align 8
  %8 = alloca ptr, align 8
  %9 = alloca ptr, align 8
  %10 = alloca i32, align 4
  %11 = alloca i32, align 4
  %12 = alloca i32, align 4
  store ptr %0, ptr %7, align 8
  store ptr %1, ptr %8, align 8
  store ptr %2, ptr %9, align 8
  store i32 %3, ptr %10, align 4
  store i32 %4, ptr %11, align 4
  %13 = load ptr, ptr %7, align 8
  store i32 0, ptr %12, align 4
  br label %14

14:                                               ; preds = %35, %5
  %15 = load i32, ptr %12, align 4
  %16 = getelementptr inbounds %struct.hb_array_t.40, ptr %13, i32 0, i32 1
  %17 = load i32, ptr %16, align 8
  %18 = icmp ult i32 %15, %17
  br i1 %18, label %19, label %38

19:                                               ; preds = %14
  %20 = load ptr, ptr %8, align 8
  %21 = getelementptr inbounds %struct.hb_array_t.40, ptr %13, i32 0, i32 0
  %22 = load ptr, ptr %21, align 8
  %23 = load i32, ptr %12, align 4
  %24 = zext i32 %23 to i64
  %25 = getelementptr inbounds %"struct.hb_user_data_array_t::hb_user_data_item_t", ptr %22, i64 %24
  %26 = call noundef zeroext i1 @"_ZNK3$_6clIRKP18hb_user_data_key_tRN20hb_user_data_array_t19hb_user_data_item_tEEEDTcl4implclsr3stdE7forwardIT_Efp_Eclsr3stdE7forwardIT0_Efp0_Ecv11hb_priorityILj16EE_EEEOS8_OS9_"(ptr noundef nonnull align 1 dereferenceable(1) @_ZL8hb_equal, ptr noundef nonnull align 8 dereferenceable(8) %20, ptr noundef nonnull align 8 dereferenceable(24) %25)
  br i1 %26, label %27, label %34

27:                                               ; preds = %19
  %28 = load ptr, ptr %9, align 8
  %29 = icmp ne ptr %28, null
  br i1 %29, label %30, label %33

30:                                               ; preds = %27
  %31 = load i32, ptr %12, align 4
  %32 = load ptr, ptr %9, align 8
  store i32 %31, ptr %32, align 4
  br label %33

33:                                               ; preds = %30, %27
  store i1 true, ptr %6, align 1
  br label %53

34:                                               ; preds = %19
  br label %35

35:                                               ; preds = %34
  %36 = load i32, ptr %12, align 4
  %37 = add i32 %36, 1
  store i32 %37, ptr %12, align 4
  br label %14, !llvm.loop !16

38:                                               ; preds = %14
  %39 = load ptr, ptr %9, align 8
  %40 = icmp ne ptr %39, null
  br i1 %40, label %41, label %52

41:                                               ; preds = %38
  %42 = load i32, ptr %10, align 4
  switch i32 %42, label %51 [
    i32 0, label %43
    i32 1, label %44
    i32 2, label %47
  ]

43:                                               ; preds = %41
  br label %51

44:                                               ; preds = %41
  %45 = load i32, ptr %11, align 4
  %46 = load ptr, ptr %9, align 8
  store i32 %45, ptr %46, align 4
  br label %51

47:                                               ; preds = %41
  %48 = getelementptr inbounds %struct.hb_array_t.40, ptr %13, i32 0, i32 1
  %49 = load i32, ptr %48, align 8
  %50 = load ptr, ptr %9, align 8
  store i32 %49, ptr %50, align 4
  br label %51

51:                                               ; preds = %47, %44, %43, %41
  br label %52

52:                                               ; preds = %51, %38
  store i1 false, ptr %6, align 1
  br label %53

53:                                               ; preds = %52, %33
  %54 = load i1, ptr %6, align 1
  ret i1 %54
}

; Function Attrs: mustprogress uwtable
define linkonce_odr hidden { ptr, i64 } @_Z8hb_arrayIN20hb_user_data_array_t19hb_user_data_item_tEE10hb_array_tIT_EPS3_j(ptr noundef %0, i32 noundef %1) #0 comdat {
  %3 = alloca %struct.hb_array_t.40, align 8
  %4 = alloca ptr, align 8
  %5 = alloca i32, align 4
  store ptr %0, ptr %4, align 8
  store i32 %1, ptr %5, align 4
  %6 = load ptr, ptr %4, align 8
  %7 = load i32, ptr %5, align 4
  call void @_ZN10hb_array_tIN20hb_user_data_array_t19hb_user_data_item_tEEC2EPS1_j(ptr noundef nonnull align 8 dereferenceable(16) %3, ptr noundef %6, i32 noundef %7)
  %8 = load { ptr, i64 }, ptr %3, align 8
  ret { ptr, i64 } %8
}

; Function Attrs: mustprogress uwtable
define linkonce_odr hidden noundef ptr @_ZN10hb_array_tIN20hb_user_data_array_t19hb_user_data_item_tEE7lsearchIP18hb_user_data_key_tEEPS1_RKT_S6_(ptr noundef nonnull align 8 dereferenceable(16) %0, ptr noundef nonnull align 8 dereferenceable(8) %1, ptr noundef %2) #0 comdat align 2 {
  %4 = alloca ptr, align 8
  %5 = alloca ptr, align 8
  %6 = alloca ptr, align 8
  %7 = alloca i32, align 4
  store ptr %0, ptr %4, align 8
  store ptr %1, ptr %5, align 8
  store ptr %2, ptr %6, align 8
  %8 = load ptr, ptr %4, align 8
  %9 = load ptr, ptr %5, align 8
  %10 = call noundef zeroext i1 @_ZNK10hb_array_tIN20hb_user_data_array_t19hb_user_data_item_tEE5lfindIP18hb_user_data_key_tEEbRKT_Pj14hb_not_found_tj(ptr noundef nonnull align 8 dereferenceable(16) %8, ptr noundef nonnull align 8 dereferenceable(8) %9, ptr noundef %7, i32 noundef 0, i32 noundef -1)
  br i1 %10, label %11, label %17

11:                                               ; preds = %3
  %12 = getelementptr inbounds %struct.hb_array_t.40, ptr %8, i32 0, i32 0
  %13 = load ptr, ptr %12, align 8
  %14 = load i32, ptr %7, align 4
  %15 = zext i32 %14 to i64
  %16 = getelementptr inbounds %"struct.hb_user_data_array_t::hb_user_data_item_t", ptr %13, i64 %15
  br label %19

17:                                               ; preds = %3
  %18 = load ptr, ptr %6, align 8
  br label %19

19:                                               ; preds = %17, %11
  %20 = phi ptr [ %16, %11 ], [ %18, %17 ]
  ret ptr %20
}

; Function Attrs: mustprogress uwtable
define linkonce_odr hidden { ptr, i64 } @_ZN11hb_vector_tIN20hb_user_data_array_t19hb_user_data_item_tELb0EE8as_arrayEv(ptr noundef nonnull align 8 dereferenceable(16) %0) #0 comdat align 2 {
  %2 = alloca %struct.hb_array_t.40, align 8
  %3 = alloca ptr, align 8
  store ptr %0, ptr %3, align 8
  %4 = load ptr, ptr %3, align 8
  %5 = getelementptr inbounds %struct.hb_vector_t.39, ptr %4, i32 0, i32 2
  %6 = load ptr, ptr %5, align 8
  %7 = getelementptr inbounds %struct.hb_vector_t.39, ptr %4, i32 0, i32 1
  %8 = load i32, ptr %7, align 4
  %9 = call { ptr, i64 } @_Z8hb_arrayIN20hb_user_data_array_t19hb_user_data_item_tEE10hb_array_tIT_EPS3_j(ptr noundef %6, i32 noundef %8)
  %10 = getelementptr inbounds { ptr, i64 }, ptr %2, i32 0, i32 0
  %11 = extractvalue { ptr, i64 } %9, 0
  store ptr %11, ptr %10, align 8
  %12 = getelementptr inbounds { ptr, i64 }, ptr %2, i32 0, i32 1
  %13 = extractvalue { ptr, i64 } %9, 1
  store i64 %13, ptr %12, align 8
  %14 = load { ptr, i64 }, ptr %2, align 8
  ret { ptr, i64 } %14
}

; Function Attrs: mustprogress nounwind uwtable
define linkonce_odr hidden noundef i32 @_ZNK15hb_atomic_int_t11get_relaxedEv(ptr noundef nonnull align 4 dereferenceable(4) %0) #2 comdat align 2 {
  %2 = alloca ptr, align 8
  %3 = alloca i32, align 4
  store ptr %0, ptr %2, align 8
  %4 = load ptr, ptr %2, align 8
  %5 = getelementptr inbounds %struct.hb_atomic_int_t, ptr %4, i32 0, i32 0
  %6 = load atomic i32, ptr %5 monotonic, align 4
  store i32 %6, ptr %3, align 4
  %7 = load i32, ptr %3, align 4
  ret i32 %7
}

; Function Attrs: mustprogress nounwind uwtable
define linkonce_odr hidden void @_ZN10hb_mutex_t6unlockEv(ptr noundef nonnull align 8 dereferenceable(40) %0) #2 comdat align 2 {
  %2 = alloca ptr, align 8
  store ptr %0, ptr %2, align 8
  %3 = load ptr, ptr %2, align 8
  %4 = getelementptr inbounds %struct.hb_mutex_t, ptr %3, i32 0, i32 0
  %5 = getelementptr inbounds [40 x i8], ptr %4, i64 0, i64 0
  %6 = call i32 @pthread_mutex_unlock(ptr noundef %5) #11
  ret void
}

; Function Attrs: mustprogress uwtable
define linkonce_odr hidden noundef ptr @_ZN11hb_vector_tIN20hb_user_data_array_t19hb_user_data_item_tELb0EE7lsearchIP18hb_user_data_key_tEEPS1_RKT_S6_(ptr noundef nonnull align 8 dereferenceable(16) %0, ptr noundef nonnull align 8 dereferenceable(8) %1, ptr noundef %2) #0 comdat align 2 {
  %4 = alloca ptr, align 8
  %5 = alloca ptr, align 8
  %6 = alloca ptr, align 8
  %7 = alloca %struct.hb_array_t.40, align 8
  store ptr %0, ptr %4, align 8
  store ptr %1, ptr %5, align 8
  store ptr %2, ptr %6, align 8
  %8 = load ptr, ptr %4, align 8
  %9 = call { ptr, i64 } @_ZN11hb_vector_tIN20hb_user_data_array_t19hb_user_data_item_tELb0EE8as_arrayEv(ptr noundef nonnull align 8 dereferenceable(16) %8)
  %10 = getelementptr inbounds { ptr, i64 }, ptr %7, i32 0, i32 0
  %11 = extractvalue { ptr, i64 } %9, 0
  store ptr %11, ptr %10, align 8
  %12 = getelementptr inbounds { ptr, i64 }, ptr %7, i32 0, i32 1
  %13 = extractvalue { ptr, i64 } %9, 1
  store i64 %13, ptr %12, align 8
  %14 = load ptr, ptr %5, align 8
  %15 = load ptr, ptr %6, align 8
  %16 = call noundef ptr @_ZN10hb_array_tIN20hb_user_data_array_t19hb_user_data_item_tEE7lsearchIP18hb_user_data_key_tEEPS1_RKT_S6_(ptr noundef nonnull align 8 dereferenceable(16) %7, ptr noundef nonnull align 8 dereferenceable(8) %14, ptr noundef %15)
  ret ptr %16
}

; Function Attrs: mustprogress nounwind uwtable
define linkonce_odr hidden void @_ZN10hb_mutex_t4lockEv(ptr noundef nonnull align 8 dereferenceable(40) %0) #2 comdat align 2 {
  %2 = alloca ptr, align 8
  store ptr %0, ptr %2, align 8
  %3 = load ptr, ptr %2, align 8
  %4 = getelementptr inbounds %struct.hb_mutex_t, ptr %3, i32 0, i32 0
  %5 = getelementptr inbounds [40 x i8], ptr %4, i64 0, i64 0
  %6 = call i32 @pthread_mutex_lock(ptr noundef %5) #11
  ret void
}

; Function Attrs: mustprogress uwtable
define linkonce_odr hidden noundef i32 @_ZNK15hb_atomic_int_tcviEv(ptr noundef nonnull align 4 dereferenceable(4) %0) #0 comdat align 2 {
  %2 = alloca ptr, align 8
  store ptr %0, ptr %2, align 8
  %3 = load ptr, ptr %2, align 8
  %4 = call noundef i32 @_ZNK15hb_atomic_int_t11get_relaxedEv(ptr noundef nonnull align 4 dereferenceable(4) %3)
  ret i32 %4
}

; Function Attrs: mustprogress uwtable
define linkonce_odr hidden noundef zeroext i1 @_ZN17hb_lockable_set_tIN20hb_user_data_array_t19hb_user_data_item_tE10hb_mutex_tE4findIP18hb_user_data_key_tEEbT_PS1_RS2_(ptr noundef nonnull align 8 dereferenceable(16) %0, ptr noundef %1, ptr noundef %2, ptr noundef nonnull align 8 dereferenceable(40) %3) #0 comdat align 2 {
  %5 = alloca ptr, align 8
  %6 = alloca ptr, align 8
  %7 = alloca ptr, align 8
  %8 = alloca ptr, align 8
  %9 = alloca ptr, align 8
  store ptr %0, ptr %5, align 8
  store ptr %1, ptr %6, align 8
  store ptr %2, ptr %7, align 8
  store ptr %3, ptr %8, align 8
  %10 = load ptr, ptr %5, align 8
  %11 = load ptr, ptr %8, align 8
  call void @_ZN10hb_mutex_t4lockEv(ptr noundef nonnull align 8 dereferenceable(40) %11)
  %12 = getelementptr inbounds %struct.hb_lockable_set_t, ptr %10, i32 0, i32 0
  %13 = call noundef ptr @_ZN11hb_vector_tIN20hb_user_data_array_t19hb_user_data_item_tELb0EE7lsearchIP18hb_user_data_key_tEEPS1_RKT_S6_(ptr noundef nonnull align 8 dereferenceable(16) %12, ptr noundef nonnull align 8 dereferenceable(8) %6, ptr noundef null)
  store ptr %13, ptr %9, align 8
  %14 = load ptr, ptr %9, align 8
  %15 = icmp ne ptr %14, null
  br i1 %15, label %16, label %19

16:                                               ; preds = %4
  %17 = load ptr, ptr %9, align 8
  %18 = load ptr, ptr %7, align 8
  call void @llvm.memcpy.p0.p0.i64(ptr align 8 %18, ptr align 8 %17, i64 24, i1 false)
  br label %19

19:                                               ; preds = %16, %4
  %20 = load ptr, ptr %8, align 8
  call void @_ZN10hb_mutex_t6unlockEv(ptr noundef nonnull align 8 dereferenceable(40) %20)
  %21 = load ptr, ptr %9, align 8
  %22 = icmp ne ptr %21, null
  %23 = xor i1 %22, true
  %24 = xor i1 %23, true
  ret i1 %24
}

; Function Attrs: mustprogress uwtable
define linkonce_odr hidden noundef i32 @_ZNK20hb_reference_count_t11get_relaxedEv(ptr noundef nonnull align 4 dereferenceable(4) %0) #0 comdat align 2 {
  %2 = alloca ptr, align 8
  store ptr %0, ptr %2, align 8
  %3 = load ptr, ptr %2, align 8
  %4 = getelementptr inbounds %struct.hb_reference_count_t, ptr %3, i32 0, i32 0
  %5 = call noundef i32 @_ZNK15hb_atomic_int_tcviEv(ptr noundef nonnull align 4 dereferenceable(4) %4)
  ret i32 %5
}

; Function Attrs: mustprogress uwtable
define linkonce_odr hidden noundef ptr @_ZN20hb_user_data_array_t3getEP18hb_user_data_key_t(ptr noundef nonnull align 8 dereferenceable(56) %0, ptr noundef %1) #0 comdat align 2 {
  %3 = alloca ptr, align 8
  %4 = alloca ptr, align 8
  %5 = alloca %"struct.hb_user_data_array_t::hb_user_data_item_t", align 8
  store ptr %0, ptr %3, align 8
  store ptr %1, ptr %4, align 8
  %6 = load ptr, ptr %3, align 8
  call void @llvm.memset.p0.i64(ptr align 8 %5, i8 0, i64 24, i1 false)
  %7 = getelementptr inbounds %struct.hb_user_data_array_t, ptr %6, i32 0, i32 1
  %8 = load ptr, ptr %4, align 8
  %9 = getelementptr inbounds %struct.hb_user_data_array_t, ptr %6, i32 0, i32 0
  %10 = call noundef zeroext i1 @_ZN17hb_lockable_set_tIN20hb_user_data_array_t19hb_user_data_item_tE10hb_mutex_tE4findIP18hb_user_data_key_tEEbT_PS1_RS2_(ptr noundef nonnull align 8 dereferenceable(16) %7, ptr noundef %8, ptr noundef %5, ptr noundef nonnull align 8 dereferenceable(40) %9)
  br i1 %10, label %11, label %14

11:                                               ; preds = %2
  %12 = getelementptr inbounds %"struct.hb_user_data_array_t::hb_user_data_item_t", ptr %5, i32 0, i32 1
  %13 = load ptr, ptr %12, align 8
  br label %15

14:                                               ; preds = %2
  br label %15

15:                                               ; preds = %14, %11
  %16 = phi ptr [ %13, %11 ], [ null, %14 ]
  ret ptr %16
}

; Function Attrs: mustprogress nounwind uwtable
define linkonce_odr hidden noundef ptr @_ZNK15hb_atomic_ptr_tI20hb_user_data_array_tE11get_acquireEv(ptr noundef nonnull align 8 dereferenceable(8) %0) #2 comdat align 2 {
  %2 = alloca ptr, align 8
  %3 = alloca ptr, align 8
  store ptr %0, ptr %2, align 8
  %4 = load ptr, ptr %2, align 8
  %5 = getelementptr inbounds %struct.hb_atomic_ptr_t, ptr %4, i32 0, i32 0
  %6 = load atomic i64, ptr %5 acquire, align 8
  store i64 %6, ptr %3, align 8
  %7 = load ptr, ptr %3, align 8
  ret ptr %7
}

; Function Attrs: mustprogress uwtable
define linkonce_odr hidden noundef zeroext i1 @_ZNK18hb_object_header_t8is_inertEv(ptr noundef nonnull align 8 dereferenceable(16) %0) #0 comdat align 2 {
  %2 = alloca ptr, align 8
  store ptr %0, ptr %2, align 8
  %3 = load ptr, ptr %2, align 8
  %4 = getelementptr inbounds %struct.hb_object_header_t, ptr %3, i32 0, i32 0
  %5 = call noundef i32 @_ZNK20hb_reference_count_t11get_relaxedEv(ptr noundef nonnull align 4 dereferenceable(4) %4)
  %6 = icmp ne i32 %5, 0
  %7 = xor i1 %6, true
  ret i1 %7
}

; Function Attrs: mustprogress uwtable
define internal noundef ptr @_ZL23hb_object_get_user_dataIK8hb_map_tEPvPT_P18hb_user_data_key_t(ptr noundef %0, ptr noundef %1) #0 {
  %3 = alloca ptr, align 8
  %4 = alloca ptr, align 8
  %5 = alloca ptr, align 8
  %6 = alloca ptr, align 8
  store ptr %0, ptr %4, align 8
  store ptr %1, ptr %5, align 8
  %7 = load ptr, ptr %4, align 8
  %8 = icmp ne ptr %7, null
  br i1 %8, label %9, label %13

9:                                                ; preds = %2
  %10 = load ptr, ptr %4, align 8
  %11 = getelementptr inbounds %struct.hb_hashmap_t, ptr %10, i32 0, i32 0
  %12 = call noundef zeroext i1 @_ZNK18hb_object_header_t8is_inertEv(ptr noundef nonnull align 8 dereferenceable(16) %11)
  br i1 %12, label %13, label %14

13:                                               ; preds = %9, %2
  store ptr null, ptr %3, align 8
  br label %26

14:                                               ; preds = %9
  %15 = load ptr, ptr %4, align 8
  %16 = getelementptr inbounds %struct.hb_hashmap_t, ptr %15, i32 0, i32 0
  %17 = getelementptr inbounds %struct.hb_object_header_t, ptr %16, i32 0, i32 2
  %18 = call noundef ptr @_ZNK15hb_atomic_ptr_tI20hb_user_data_array_tE11get_acquireEv(ptr noundef nonnull align 8 dereferenceable(8) %17)
  store ptr %18, ptr %6, align 8
  %19 = load ptr, ptr %6, align 8
  %20 = icmp ne ptr %19, null
  br i1 %20, label %22, label %21

21:                                               ; preds = %14
  store ptr null, ptr %3, align 8
  br label %26

22:                                               ; preds = %14
  %23 = load ptr, ptr %6, align 8
  %24 = load ptr, ptr %5, align 8
  %25 = call noundef ptr @_ZN20hb_user_data_array_t3getEP18hb_user_data_key_t(ptr noundef nonnull align 8 dereferenceable(56) %23, ptr noundef %24)
  store ptr %25, ptr %3, align 8
  br label %26

26:                                               ; preds = %22, %21, %13
  %27 = load ptr, ptr %3, align 8
  ret ptr %27
}

; Function Attrs: mustprogress uwtable
define hidden ptr @hb_map_get_user_data(ptr noundef %0, ptr noundef %1) #0 {
  %3 = alloca ptr, align 8
  %4 = alloca ptr, align 8
  store ptr %0, ptr %3, align 8
  store ptr %1, ptr %4, align 8
  %5 = load ptr, ptr %3, align 8
  %6 = load ptr, ptr %4, align 8
  %7 = call noundef ptr @_ZL23hb_object_get_user_dataIK8hb_map_tEPvPT_P18hb_user_data_key_t(ptr noundef %5, ptr noundef %6)
  ret ptr %7
}