; Function Attrs: mustprogress nounwind uwtable
define hidden ptr @hb_map_get_user_data(ptr noundef readonly %0, ptr noundef readnone %1) local_unnamed_addr #5 {
  %.not.i = icmp eq ptr %0, null
  br i1 %.not.i, label %_ZL23hb_object_get_user_dataIK8hb_map_tEPvPT_P18hb_user_data_key_t.exit, label %3

3:                                                ; preds = %2
  %4 = load atomic i32, ptr %0 monotonic, align 4
  %.not.i.i = icmp eq i32 %4, 0
  br i1 %.not.i.i, label %_ZL23hb_object_get_user_dataIK8hb_map_tEPvPT_P18hb_user_data_key_t.exit, label %5

5:                                                ; preds = %3
  %6 = getelementptr inbounds i8, ptr %0, i64 8
  %7 = load atomic i64, ptr %6 acquire, align 8
  %8 = inttoptr i64 %7 to ptr
  %.not9.i = icmp eq i64 %7, 0
  br i1 %.not9.i, label %_ZL23hb_object_get_user_dataIK8hb_map_tEPvPT_P18hb_user_data_key_t.exit, label %9

9:                                                ; preds = %5
  %10 = tail call i32 @pthread_mutex_lock(ptr noundef nonnull %8) #23
  %11 = getelementptr inbounds i8, ptr %8, i64 48
  %12 = load ptr, ptr %11, align 8
  %13 = getelementptr inbounds i8, ptr %8, i64 44
  %14 = load i32, ptr %13, align 4
  %.sroa.2.8.insert.ext.i.i.i.i.i.i = zext i32 %14 to i64
  %.not28.i.i.i.i.i.i = icmp eq i32 %14, 0
  br i1 %.not28.i.i.i.i.i.i, label %_ZN20hb_user_data_array_t3getEP18hb_user_data_key_t.exit.i, label %.lr.ph.i.i.i.i.i.i

.lr.ph.i.i.i.i.i.i:                               ; preds = %9
  %.val17.i8.i.i.i.i.i = load ptr, ptr %12, align 8
  %15 = icmp eq ptr %.val17.i8.i.i.i.i.i, %1
  br i1 %15, label %22, label %.lr.ph.i.i.i.i.i

16:                                               ; preds = %.lr.ph.i.i.i.i.i
  %17 = getelementptr inbounds %"struct.hb_user_data_array_t::hb_user_data_item_t", ptr %12, i64 %indvars.iv.next.i.i.i.i.i.i
  %.val17.i.i.i.i.i.i = load ptr, ptr %17, align 8
  %18 = icmp eq ptr %.val17.i.i.i.i.i.i, %1
  br i1 %18, label %._crit_edge.i.i.i.i.i, label %.lr.ph.i.i.i.i.i, !llvm.loop !6

._crit_edge.i.i.i.i.i:                            ; preds = %16
  %19 = icmp ult i64 %indvars.iv.next.i.i.i.i.i.i, %.sroa.2.8.insert.ext.i.i.i.i.i.i
  %cond.fr.le.i.i.i.i.i = freeze i1 %19
  %20 = and i64 %indvars.iv.next.i.i.i.i.i.i, 4294967295
  %21 = getelementptr inbounds %"struct.hb_user_data_array_t::hb_user_data_item_t", ptr %12, i64 %20
  br i1 %cond.fr.le.i.i.i.i.i, label %22, label %_ZN20hb_user_data_array_t3getEP18hb_user_data_key_t.exit.i

.lr.ph.i.i.i.i.i:                                 ; preds = %.lr.ph.i.i.i.i.i.i, %16
  %indvars.iv.i9.i.i.i.i.i = phi i64 [ %indvars.iv.next.i.i.i.i.i.i, %16 ], [ 0, %.lr.ph.i.i.i.i.i.i ]
  %indvars.iv.next.i.i.i.i.i.i = add nuw nsw i64 %indvars.iv.i9.i.i.i.i.i, 1
  %exitcond.not.i.i.i.i.i.i = icmp eq i64 %indvars.iv.next.i.i.i.i.i.i, %.sroa.2.8.insert.ext.i.i.i.i.i.i
  br i1 %exitcond.not.i.i.i.i.i.i, label %_ZN20hb_user_data_array_t3getEP18hb_user_data_key_t.exit.i, label %16, !llvm.loop !6

22:                                               ; preds = %._crit_edge.i.i.i.i.i, %.lr.ph.i.i.i.i.i.i
  %23 = phi ptr [ %12, %.lr.ph.i.i.i.i.i.i ], [ %21, %._crit_edge.i.i.i.i.i ]
  %.sroa.2.0..sroa_idx.i.i = getelementptr inbounds i8, ptr %23, i64 8
  %.sroa.2.0.copyload.i.i = load ptr, ptr %.sroa.2.0..sroa_idx.i.i, align 8
  br label %_ZN20hb_user_data_array_t3getEP18hb_user_data_key_t.exit.i

_ZN20hb_user_data_array_t3getEP18hb_user_data_key_t.exit.i: ; preds = %.lr.ph.i.i.i.i.i, %22, %._crit_edge.i.i.i.i.i, %9
  %24 = phi ptr [ %.sroa.2.0.copyload.i.i, %22 ], [ null, %9 ], [ null, %._crit_edge.i.i.i.i.i ], [ null, %.lr.ph.i.i.i.i.i ]
  %25 = tail call i32 @pthread_mutex_unlock(ptr noundef nonnull %8) #23
  br label %_ZL23hb_object_get_user_dataIK8hb_map_tEPvPT_P18hb_user_data_key_t.exit

_ZL23hb_object_get_user_dataIK8hb_map_tEPvPT_P18hb_user_data_key_t.exit: ; preds = %2, %3, %5, %_ZN20hb_user_data_array_t3getEP18hb_user_data_key_t.exit.i
  %.0.i = phi ptr [ %24, %_ZN20hb_user_data_array_t3getEP18hb_user_data_key_t.exit.i ], [ null, %3 ], [ null, %2 ], [ null, %5 ]
  ret ptr %.0.i
}